target datalayout = "e-m:e-p270:32:32-p271:32:32-p272:64:64-i64:64-i128:128-f80:128-n8:16:32:64-S128"
target triple = "x86_64-pc-linux-gnu"

%class.LibRaw = type { ptr, %struct.libraw_data_t, ptr, %struct.libraw_internal_data_t, [2048 x %struct.decode], ptr, ptr, [10 x %struct.tiff_ifd_t], %class.libraw_memmgr, %struct.libraw_callbacks_t, { i64, i64 }, { i64, i64 }, { i64, i64 }, ptr, ptr, ptr, i64, ptr, ptr, ptr, ptr }
%struct.libraw_data_t = type { ptr, %struct.libraw_image_sizes_t, %struct.libraw_iparams_t, %struct.libraw_lensinfo_t, %struct.libraw_makernotes_t, %struct.libraw_shootinginfo_t, %struct.libraw_output_params_t, %struct.libraw_raw_unpack_params_t, i32, i32, %struct.libraw_colordata_t, %struct.libraw_imgother_t, %struct.libraw_thumbnail_t, %struct.libraw_thumbnail_list_t, %struct.libraw_rawdata_t, ptr }
%struct.libraw_image_sizes_t = type { i16, i16, i16, i16, i16, i16, i16, i16, i32, double, i32, [8 x [4 x i32]], i16, [2 x %struct.libraw_raw_inset_crop_t] }
%struct.libraw_raw_inset_crop_t = type { i16, i16, i16, i16 }
%struct.libraw_iparams_t = type { [4 x i8], [64 x i8], [64 x i8], [64 x i8], [64 x i8], [64 x i8], i32, i32, i32, i32, i32, i32, [6 x [6 x i8]], [6 x [6 x i8]], [5 x i8], i32, ptr }
%struct.libraw_lensinfo_t = type { float, float, float, float, float, [128 x i8], [128 x i8], [128 x i8], [128 x i8], i16, %struct.libraw_nikonlens_t, %struct.libraw_dnglens_t, %struct.libraw_makernotes_lens_t }
%struct.libraw_nikonlens_t = type { float, i8, i8, i8, i8 }
%struct.libraw_dnglens_t = type { float, float, float, float }
%struct.libraw_makernotes_lens_t = type { i64, [128 x i8], i16, i16, i64, i16, i16, [64 x i8], i16, [16 x i8], [16 x i8], float, float, float, float, float, float, float, float, float, float, float, float, float, float, float, i64, [128 x i8], i64, [128 x i8], i64, [128 x i8], i16, float }
%struct.libraw_makernotes_t = type { %struct.libraw_canon_makernotes_t, %struct.libraw_nikon_makernotes_t, %struct.libraw_hasselblad_makernotes_t, %struct.libraw_fuji_info_t, %struct.libraw_olympus_makernotes_t, %struct.libraw_sony_info_t, %struct.libraw_kodak_makernotes_t, %struct.libraw_panasonic_makernotes_t, %struct.libraw_pentax_makernotes_t, %struct.libraw_p1_makernotes_t, %struct.libraw_ricoh_makernotes_t, %struct.libraw_samsung_makernotes_t, %struct.libraw_metadata_common_t }
%struct.libraw_canon_makernotes_t = type { i32, i32, i32, i32, [4 x i32], i32, [4 x i32], i16, i16, i8, i16, i16, i16, i16, i16, i16, i16, i16, i16, i16, i16, i16, i16, i32, float, i16, i16, i16, i32, i16, i32, i32, i16, i32, %struct.libraw_area_t, %struct.libraw_area_t, %struct.libraw_area_t, %struct.libraw_area_t, %struct.libraw_area_t, [2 x i16] }
%struct.libraw_area_t = type { i16, i16, i16, i16 }
%struct.libraw_nikon_makernotes_t = type { double, i16, i16, [7 x i8], i8, i8, [13 x i8], [20 x i8], [4 x i8], [4 x i8], [4 x i8], i8, i8, i8, i8, i8, [2 x i8], i8, i8, i8, i8, i8, [4 x i8], [4 x i8], i8, i16, i32, i32, i32, i32, [4 x double], i8, i8, i8, i32, i32, i32, i8, [4 x i16], i16, %struct.libraw_sensor_highspeed_crop_t, i16, i16, i16, i32, [20 x i8], [20 x i8], i32, i16, double, double, double }
%struct.libraw_sensor_highspeed_crop_t = type { i16, i16, i16, i16 }
%struct.libraw_hasselblad_makernotes_t = type { i32, double, [8 x i8], [64 x i8], [64 x i8], i32, i32, i32, i32, [32 x i8], [64 x i8], i32, [2 x i32], [2 x i32], [4 x [3 x double]] }
%struct.libraw_fuji_info_t = type { float, i16, i16, i16, i16, i16, i16, i16, i16, [33 x i8], [33 x i8], float, i16, i16, [2 x i16], i16, i32, i32, i16, [3 x i16], i16, i16, i16, i16, i16, i32, i16, [13 x i8], [5 x i8], [5 x i8], i32, i16, i32, i16, [9 x i16], [32 x i32], i32, i32, i32, [2 x float], i32 }
%struct.libraw_olympus_makernotes_t = type { [6 x i8], i16, [2 x i32], [5 x i16], i16, [2 x i16], i16, i16, [64 x i32], [5 x double], i16, i8, [3 x i16], [3 x i32], i16, i16, i16, i16, double, [4 x i16], [2 x i32], i8, i32, i16, i16 }
%struct.libraw_sony_info_t = type { i16, i8, i8, i32, i8, i32, i8, i8, i16, [2 x i16], i8, i8, i16, [10 x i8], i8, i8, [4 x i16], i16, i8, i8, i8, i16, i32, i16, [2 x i16], i16, i16, i16, i16, i16, i16, i16, i32, float, i16, i32, i32, i16, [20 x i8], i32, i16, i32, i8, i8, i16, i16, i16, i16, i16, i16, i16, i16, i16, i32, i16, [16 x i8], float }
%struct.libraw_kodak_makernotes_t = type { i16, i16, i16, i16, i16, i16, [3 x [3 x float]], [3 x [3 x float]], [3 x [3 x float]], [3 x [3 x float]], [3 x [3 x float]], [3 x [3 x float]], i16, i16, i16, i16, float, float }
%struct.libraw_panasonic_makernotes_t = type { i16, i16, [8 x float], i32, float, [3 x i32], i16, i16, i32, i32 }
%struct.libraw_pentax_makernotes_t = type { [4 x i8], [2 x i16], [2 x i16], i16, i32, i32, i16, i16, i8, i8, i16 }
%struct.libraw_p1_makernotes_t = type { [64 x i8], [64 x i8], [256 x i8], [64 x i8] }
%struct.libraw_ricoh_makernotes_t = type { i16, [2 x i32], [2 x i32], i16, i32, i32, i32, i32, i16, i16, i16, i16, i16, i16, double, double }
%struct.libraw_samsung_makernotes_t = type { [4 x i32], [4 x i32], [2 x i32], [11 x i32], double, i32, [32 x i8] }
%struct.libraw_metadata_common_t = type { float, float, float, float, float, float, float, float, float, float, float, float, float, float, float, float, i16, [128 x i8], float, [4 x %struct.libraw_afinfo_item_t], i32 }
%struct.libraw_afinfo_item_t = type { i32, i16, i32, i32, ptr }
%struct.libraw_shootinginfo_t = type { i16, i16, i16, i16, i16, i16, i16, [64 x i8], [64 x i8] }
%struct.libraw_output_params_t = type { [4 x i32], [4 x i32], [4 x double], [6 x double], [4 x float], float, float, i32, i32, i32, i32, i32, i32, i32, ptr, ptr, ptr, ptr, i32, i32, i32, i32, i32, i32, [4 x i32], i32, i32, float, float, i32, i32, i32, i32, i32, i32, i32, i32, float, float, i32, i32 }
%struct.libraw_raw_unpack_params_t = type { i32, i32, i32, i32, i32, i32, i32, float, [5 x i8], ptr }
%struct.libraw_colordata_t = type { [65536 x i16], [4104 x i32], i32, i32, i32, [4 x i64], float, float, [8 x [8 x i16]], [4 x float], [4 x float], [3 x [4 x float]], [3 x [4 x float]], [3 x [4 x float]], [4 x [3 x float]], %struct.ph1_t, float, float, [64 x i8], [64 x i8], [64 x i8], [64 x i8], [17 x i8], [64 x i8], ptr, i32, [8 x i32], [2 x %struct.libraw_dng_color_t], %struct.libraw_dng_levels_t, [256 x [4 x i32]], [64 x [5 x float]], i32, [2 x %struct.libraw_P1_color_t], i32, i32 }
%struct.ph1_t = type { i32, i32, i32, i32, i32, i32, i32, i32, float }
%struct.libraw_dng_color_t = type { i32, i16, [4 x [4 x float]], [4 x [3 x float]], [3 x [4 x float]] }
%struct.libraw_dng_levels_t = type { i32, [4104 x i32], i32, [4104 x float], float, [4 x i32], [4 x i16], [4 x float], i32, [4 x float], [4 x float], float, float }
%struct.libraw_P1_color_t = type { [9 x float] }
%struct.libraw_imgother_t = type { float, float, float, float, i64, i32, [32 x i32], %struct.libraw_gps_info_t, [512 x i8], [64 x i8], [4 x float] }
%struct.libraw_gps_info_t = type { [3 x float], [3 x float], [3 x float], float, i8, i8, i8, i8, i8 }
%struct.libraw_thumbnail_t = type { i32, i16, i16, i32, i32, ptr }
%struct.libraw_thumbnail_list_t = type { i32, [8 x %struct.libraw_thumbnail_item_t] }
%struct.libraw_thumbnail_item_t = type { i32, i16, i16, i16, i32, i32, i64 }
%struct.libraw_rawdata_t = type { ptr, ptr, ptr, ptr, ptr, ptr, ptr, ptr, ptr, %struct.libraw_iparams_t, %struct.libraw_image_sizes_t, %struct.libraw_internal_output_params_t, %struct.libraw_colordata_t }
%struct.libraw_internal_output_params_t = type { i32, i32, i32, i16, i16 }
%struct.libraw_internal_data_t = type { %struct.internal_data_t, %struct.libraw_internal_output_params_t, %struct.output_data_t, %struct.identify_data_t, %struct.unpacker_data_t }
%struct.internal_data_t = type { ptr, ptr, i32, ptr, i64, i64, [4 x i32] }
%struct.output_data_t = type { ptr, ptr }
%struct.identify_data_t = type { i32, i64, i64, i32, i32, i32 }
%struct.unpacker_data_t = type { i16, [4 x i16], [3 x i16], i32, i64, i64, i64, i64, i64, i64, i32, i32, i32, i32, i32, i32, i32, i32, i32, i32, i32, i32, i32, i32, i32, i32, i32, i64, i32, i32, i32, i32, i32, i32, i32, i32, i32, %struct.pana8_tags_t, [16 x %struct.crx_data_header_t], i32, i32, i16, i16, i32, i32, i32, i32, i32, i32, i32, [20 x i32], i16 }
%struct.pana8_tags_t = type { [6 x i32], [6 x i16], i16, [4 x i16], [17 x i16], [17 x i16], [17 x i16], i16, i16, [5 x i64], [5 x i16], [5 x i32], [5 x i16], [5 x i16] }
%struct.crx_data_header_t = type { i32, i32, i32, i32, i32, i32, i32, i32, i32, i32, i32, i32, i32, i32, i32, i64, i32, ptr, i32, i32, i32, ptr, i32, ptr }
%struct.decode = type { [2 x ptr], i32 }
%struct.tiff_ifd_t = type { i32, i32, i32, i32, i32, i32, i32, i32, i32, i32, i32, i32, i32, i32, i32, ptr, i32, ptr, i32, i32, i32, i32, i32, i32, i32, float, i64, i64, i32, [2 x %struct.libraw_dng_color_t], %struct.libraw_dng_levels_t, i32 }
%class.libraw_memmgr = type <{ ptr, i32, [4 x i8] }>
%struct.libraw_callbacks_t = type { ptr, ptr, ptr, ptr, ptr, ptr, ptr, ptr, ptr, ptr, ptr, ptr, ptr, ptr, ptr, ptr, ptr }

@.str.2 = private unnamed_addr constant [6 x i8] c"MC-11\00", align 1

; Function Attrs: mustprogress nounwind uwtable
define void @_ZN6LibRaw18parseSonyLensType2Ehh(ptr noundef nonnull align 8 dereferenceable(767680) %0, i8 noundef zeroext %1, i8 noundef zeroext %2) #2 align 2 {
  %4 = alloca ptr, align 8
  %5 = alloca i8, align 1
  %6 = alloca i8, align 1
  %7 = alloca i16, align 2
  %8 = alloca i32, align 4
  store ptr %0, ptr %4, align 8, !tbaa !6
  store i8 %1, ptr %5, align 1, !tbaa !104
  store i8 %2, ptr %6, align 1, !tbaa !104
  %9 = load ptr, ptr %4, align 8
  call void @llvm.lifetime.start.p0(i64 2, ptr %7) #13
  %10 = load i8, ptr %5, align 1, !tbaa !104
  %11 = zext i8 %10 to i16
  %12 = zext i16 %11 to i32
  %13 = shl i32 %12, 8
  %14 = load i8, ptr %6, align 1, !tbaa !104
  %15 = zext i8 %14 to i16
  %16 = zext i16 %15 to i32
  %17 = or i32 %13, %16
  %18 = trunc i32 %17 to i16
  store i16 %18, ptr %7, align 2, !tbaa !94
  %19 = load i16, ptr %7, align 2, !tbaa !94
  %20 = icmp ne i16 %19, 0
  br i1 %20, label %22, label %21

21:                                               ; preds = %3
  store i32 1, ptr %8, align 4
  br label %121

22:                                               ; preds = %3
  %23 = load i16, ptr %7, align 2, !tbaa !94
  %24 = zext i16 %23 to i32
  %25 = icmp slt i32 %24, 256
  br i1 %25, label %26, label %61

26:                                               ; preds = %22
  %27 = getelementptr inbounds nuw %class.LibRaw, ptr %9, i32 0, i32 1
  %28 = getelementptr inbounds nuw %struct.libraw_data_t, ptr %27, i32 0, i32 3
  %29 = getelementptr inbounds nuw %struct.libraw_lensinfo_t, ptr %28, i32 0, i32 12
  %30 = getelementptr inbounds nuw %struct.libraw_makernotes_lens_t, ptr %29, i32 0, i32 28
  %31 = load i64, ptr %30, align 8, !tbaa !105
  %32 = icmp ne i64 %31, 18688
  br i1 %32, label %33, label %60

33:                                               ; preds = %26
  %34 = getelementptr inbounds nuw %class.LibRaw, ptr %9, i32 0, i32 1
  %35 = getelementptr inbounds nuw %struct.libraw_data_t, ptr %34, i32 0, i32 3
  %36 = getelementptr inbounds nuw %struct.libraw_lensinfo_t, ptr %35, i32 0, i32 12
  %37 = getelementptr inbounds nuw %struct.libraw_makernotes_lens_t, ptr %36, i32 0, i32 28
  %38 = load i64, ptr %37, align 8, !tbaa !105
  %39 = icmp ne i64 %38, 61184
  br i1 %39, label %40, label %60

40:                                               ; preds = %33
  %41 = load i16, ptr %7, align 2, !tbaa !94
  %42 = zext i16 %41 to i64
  %43 = getelementptr inbounds nuw %class.LibRaw, ptr %9, i32 0, i32 1
  %44 = getelementptr inbounds nuw %struct.libraw_data_t, ptr %43, i32 0, i32 3
  %45 = getelementptr inbounds nuw %struct.libraw_lensinfo_t, ptr %44, i32 0, i32 12
  %46 = getelementptr inbounds nuw %struct.libraw_makernotes_lens_t, ptr %45, i32 0, i32 28
  store i64 %42, ptr %46, align 8, !tbaa !105
  %47 = load i16, ptr %7, align 2, !tbaa !94
  %48 = zext i16 %47 to i32
  switch i32 %48, label %59 [
    i32 1, label %49
    i32 2, label %49
    i32 3, label %49
    i32 6, label %49
    i32 7, label %49
    i32 24593, label %49
    i32 44, label %54
    i32 78, label %54
    i32 184, label %54
    i32 234, label %54
    i32 239, label %54
  ]

49:                                               ; preds = %40, %40, %40, %40, %40, %40
  %50 = getelementptr inbounds nuw %class.LibRaw, ptr %9, i32 0, i32 1
  %51 = getelementptr inbounds nuw %struct.libraw_data_t, ptr %50, i32 0, i32 3
  %52 = getelementptr inbounds nuw %struct.libraw_lensinfo_t, ptr %51, i32 0, i32 12
  %53 = getelementptr inbounds nuw %struct.libraw_makernotes_lens_t, ptr %52, i32 0, i32 3
  store i16 25, ptr %53, align 2, !tbaa !89
  br label %59

54:                                               ; preds = %40, %40, %40, %40, %40
  %55 = getelementptr inbounds nuw %class.LibRaw, ptr %9, i32 0, i32 1
  %56 = getelementptr inbounds nuw %struct.libraw_data_t, ptr %55, i32 0, i32 3
  %57 = getelementptr inbounds nuw %struct.libraw_lensinfo_t, ptr %56, i32 0, i32 12
  %58 = getelementptr inbounds nuw %struct.libraw_makernotes_lens_t, ptr %57, i32 0, i32 3
  store i16 5, ptr %58, align 2, !tbaa !89
  br label %59

59:                                               ; preds = %40, %54, %49
  br label %60

60:                                               ; preds = %59, %33, %26
  br label %68

61:                                               ; preds = %22
  %62 = load i16, ptr %7, align 2, !tbaa !94
  %63 = zext i16 %62 to i64
  %64 = getelementptr inbounds nuw %class.LibRaw, ptr %9, i32 0, i32 1
  %65 = getelementptr inbounds nuw %struct.libraw_data_t, ptr %64, i32 0, i32 3
  %66 = getelementptr inbounds nuw %struct.libraw_lensinfo_t, ptr %65, i32 0, i32 12
  %67 = getelementptr inbounds nuw %struct.libraw_makernotes_lens_t, ptr %66, i32 0, i32 0
  store i64 %63, ptr %67, align 8, !tbaa !106
  br label %68

68:                                               ; preds = %61, %60
  %69 = load i16, ptr %7, align 2, !tbaa !94
  %70 = zext i16 %69 to i32
  %71 = icmp sge i32 %70, 50481
  br i1 %71, label %72, label %87

72:                                               ; preds = %68
  %73 = load i16, ptr %7, align 2, !tbaa !94
  %74 = zext i16 %73 to i32
  %75 = icmp slt i32 %74, 50500
  br i1 %75, label %76, label %87

76:                                               ; preds = %72
  %77 = getelementptr inbounds nuw %class.LibRaw, ptr %9, i32 0, i32 1
  %78 = getelementptr inbounds nuw %struct.libraw_data_t, ptr %77, i32 0, i32 3
  %79 = getelementptr inbounds nuw %struct.libraw_lensinfo_t, ptr %78, i32 0, i32 12
  %80 = getelementptr inbounds nuw %struct.libraw_makernotes_lens_t, ptr %79, i32 0, i32 29
  %81 = getelementptr inbounds [128 x i8], ptr %80, i64 0, i64 0
  %82 = call ptr @strcpy(ptr noundef %81, ptr noundef @.str.2) #13
  %83 = getelementptr inbounds nuw %class.LibRaw, ptr %9, i32 0, i32 1
  %84 = getelementptr inbounds nuw %struct.libraw_data_t, ptr %83, i32 0, i32 3
  %85 = getelementptr inbounds nuw %struct.libraw_lensinfo_t, ptr %84, i32 0, i32 12
  %86 = getelementptr inbounds nuw %struct.libraw_makernotes_lens_t, ptr %85, i32 0, i32 28
  store i64 18688, ptr %86, align 8, !tbaa !105
  br label %120

87:                                               ; preds = %72, %68
  %88 = load i16, ptr %7, align 2, !tbaa !94
  %89 = zext i16 %88 to i32
  %90 = icmp sgt i32 %89, 61184
  br i1 %90, label %91, label %119

91:                                               ; preds = %87
  %92 = load i16, ptr %7, align 2, !tbaa !94
  %93 = zext i16 %92 to i32
  %94 = icmp slt i32 %93, 65535
  br i1 %94, label %95, label %119

95:                                               ; preds = %91
  %96 = load i16, ptr %7, align 2, !tbaa !94
  %97 = zext i16 %96 to i32
  %98 = icmp ne i32 %97, 65280
  br i1 %98, label %99, label %119

99:                                               ; preds = %95
  %100 = getelementptr inbounds nuw %class.LibRaw, ptr %9, i32 0, i32 1
  %101 = getelementptr inbounds nuw %struct.libraw_data_t, ptr %100, i32 0, i32 3
  %102 = getelementptr inbounds nuw %struct.libraw_lensinfo_t, ptr %101, i32 0, i32 12
  %103 = getelementptr inbounds nuw %struct.libraw_makernotes_lens_t, ptr %102, i32 0, i32 28
  store i64 61184, ptr %103, align 8, !tbaa !105
  %104 = getelementptr inbounds nuw %class.LibRaw, ptr %9, i32 0, i32 1
  %105 = getelementptr inbounds nuw %struct.libraw_data_t, ptr %104, i32 0, i32 3
  %106 = getelementptr inbounds nuw %struct.libraw_lensinfo_t, ptr %105, i32 0, i32 12
  %107 = getelementptr inbounds nuw %struct.libraw_makernotes_lens_t, ptr %106, i32 0, i32 28
  %108 = load i64, ptr %107, align 8, !tbaa !105
  %109 = getelementptr inbounds nuw %class.LibRaw, ptr %9, i32 0, i32 1
  %110 = getelementptr inbounds nuw %struct.libraw_data_t, ptr %109, i32 0, i32 3
  %111 = getelementptr inbounds nuw %struct.libraw_lensinfo_t, ptr %110, i32 0, i32 12
  %112 = getelementptr inbounds nuw %struct.libraw_makernotes_lens_t, ptr %111, i32 0, i32 0
  %113 = load i64, ptr %112, align 8, !tbaa !106
  %114 = sub i64 %113, %108
  store i64 %114, ptr %112, align 8, !tbaa !106
  %115 = getelementptr inbounds nuw %class.LibRaw, ptr %9, i32 0, i32 1
  %116 = getelementptr inbounds nuw %struct.libraw_data_t, ptr %115, i32 0, i32 3
  %117 = getelementptr inbounds nuw %struct.libraw_lensinfo_t, ptr %116, i32 0, i32 12
  %118 = getelementptr inbounds nuw %struct.libraw_makernotes_lens_t, ptr %117, i32 0, i32 3
  store i16 5, ptr %118, align 2, !tbaa !89
  br label %119

119:                                              ; preds = %99, %95, %91, %87
  br label %120

120:                                              ; preds = %119, %76
  store i32 1, ptr %8, align 4
  br label %121

121:                                              ; preds = %120, %21
  call void @llvm.lifetime.end.p0(i64 2, ptr %7) #13
  ret void
}