; Function Attrs: mustprogress nofree norecurse nosync nounwind willreturn memory(argmem: readwrite) uwtable
define void @_ZN6LibRaw18parseSonyLensType2Ehh(ptr noundef nonnull align 8 captures(none) dereferenceable(767680) %0, i8 noundef zeroext %1, i8 noundef zeroext %2) local_unnamed_addr #5 align 2 {
  %4 = zext i8 %1 to i16
  %5 = shl nuw i16 %4, 8
  %6 = zext i8 %2 to i16
  %7 = or disjoint i16 %5, %6
  %.not = icmp eq i16 %7, 0
  br i1 %.not, label %.thread25, label %8

8:                                                ; preds = %3
  %9 = icmp eq i8 %1, 0
  br i1 %9, label %10, label %19

10:                                               ; preds = %8
  %11 = getelementptr inbounds nuw i8, ptr %0, i64 1656
  %12 = load i64, ptr %11, align 8, !tbaa !99
  switch i64 %12, label %13 [
    i64 18688, label %22
    i64 61184, label %22
  ]

13:                                               ; preds = %10
  %14 = zext nneg i16 %7 to i64
  store i64 %14, ptr %11, align 8, !tbaa !99
  switch i16 %7, label %22 [
    i16 1, label %15
    i16 2, label %15
    i16 3, label %15
    i16 6, label %15
    i16 7, label %15
    i16 24593, label %15
    i16 44, label %17
    i16 78, label %17
    i16 184, label %17
    i16 234, label %17
    i16 239, label %17
  ]

15:                                               ; preds = %13, %13, %13, %13, %13, %13
  %16 = getelementptr inbounds nuw i8, ptr %0, i64 1338
  store i16 25, ptr %16, align 2, !tbaa !85
  br label %.thread25

17:                                               ; preds = %13, %13, %13, %13, %13
  %18 = getelementptr inbounds nuw i8, ptr %0, i64 1338
  store i16 5, ptr %18, align 2, !tbaa !85
  br label %.thread25

19:                                               ; preds = %8
  %20 = zext i16 %7 to i64
  %21 = getelementptr inbounds nuw i8, ptr %0, i64 1200
  store i64 %20, ptr %21, align 8, !tbaa !100
  br label %22

22:                                               ; preds = %10, %10, %13, %19
  %23 = add i16 %7, 15055
  %or.cond = icmp ult i16 %23, 19
  br i1 %or.cond, label %24, label %27

24:                                               ; preds = %22
  %25 = getelementptr inbounds nuw i8, ptr %0, i64 1664
  tail call void @llvm.memcpy.p0.p0.i64(ptr noundef nonnull align 8 dereferenceable(6) %25, ptr noundef nonnull align 1 dereferenceable(6) @.str.2, i64 6, i1 false) #20
  %26 = getelementptr inbounds nuw i8, ptr %0, i64 1656
  store i64 18688, ptr %26, align 8, !tbaa !99
  br label %.thread25

27:                                               ; preds = %22
  %28 = add i16 %7, 4351
  %or.cond5 = icmp ult i16 %28, 4350
  %29 = icmp ne i16 %7, -256
  %or.cond8 = and i1 %29, %or.cond5
  br i1 %or.cond8, label %30, label %.thread25

30:                                               ; preds = %27
  %31 = getelementptr inbounds nuw i8, ptr %0, i64 1200
  %32 = getelementptr inbounds nuw i8, ptr %0, i64 1656
  store i64 61184, ptr %32, align 8, !tbaa !99
  %33 = load i64, ptr %31, align 8, !tbaa !100
  %34 = add i64 %33, -61184
  store i64 %34, ptr %31, align 8, !tbaa !100
  %35 = getelementptr inbounds nuw i8, ptr %0, i64 1338
  store i16 5, ptr %35, align 2, !tbaa !85
  br label %.thread25

.thread25:                                        ; preds = %17, %15, %24, %30, %27, %3
  ret void
}